; Function Attrs: nounwind uwtable
define dso_local range(i32 0, 2) i32 @activeExpireCycleTryExpire(ptr noundef %0, ptr noundef %1, i64 noundef %2) local_unnamed_addr #0 {
  %4 = tail call i64 @dictGetSignedIntegerVal(ptr noundef %1) #10
  %5 = icmp slt i64 %2, %4
  br i1 %5, label %31, label %6

6:                                                ; preds = %3
  tail call void @enterExecutionUnit(i32 noundef 1, i64 noundef 0) #10
  %7 = tail call ptr @dictGetKey(ptr noundef %1) #10
  %8 = getelementptr inbounds i8, ptr %7, i64 -1
  %9 = load i8, ptr %8, align 1, !tbaa !5
  %10 = zext i8 %9 to i32
  %11 = and i32 %10, 7
  switch i32 %11, label %sdslen.exit [
    i32 0, label %12
    i32 1, label %15
    i32 2, label %19
    i32 3, label %23
    i32 4, label %27
  ]

12:                                               ; preds = %6
  %13 = lshr i32 %10, 3
  %14 = zext nneg i32 %13 to i64
  br label %sdslen.exit

15:                                               ; preds = %6
  %16 = getelementptr inbounds i8, ptr %7, i64 -3
  %17 = load i8, ptr %16, align 1, !tbaa !5
  %18 = zext i8 %17 to i64
  br label %sdslen.exit

19:                                               ; preds = %6
  %20 = getelementptr inbounds i8, ptr %7, i64 -5
  %21 = load i16, ptr %20, align 1, !tbaa !8
  %22 = zext i16 %21 to i64
  br label %sdslen.exit

23:                                               ; preds = %6
  %24 = getelementptr inbounds i8, ptr %7, i64 -9
  %25 = load i32, ptr %24, align 1, !tbaa !10
  %26 = zext i32 %25 to i64
  br label %sdslen.exit

27:                                               ; preds = %6
  %28 = getelementptr inbounds i8, ptr %7, i64 -17
  %29 = load i64, ptr %28, align 1, !tbaa !12
  br label %sdslen.exit

sdslen.exit:                                      ; preds = %6, %12, %15, %19, %23, %27
  %.0.i = phi i64 [ %29, %27 ], [ %26, %23 ], [ %22, %19 ], [ %18, %15 ], [ %14, %12 ], [ 0, %6 ]
  %30 = tail call ptr @createStringObject(ptr noundef nonnull %7, i64 noundef %.0.i) #10
  tail call void @deleteExpiredKeyAndPropagate(ptr noundef %0, ptr noundef %30) #10
  tail call void @decrRefCount(ptr noundef %30) #10
  tail call void @exitExecutionUnit() #10
  tail call void @postExecutionUnitOperations() #10
  br label %31

31:                                               ; preds = %3, %sdslen.exit
  %.0 = phi i32 [ 1, %sdslen.exit ], [ 0, %3 ]
  ret i32 %.0
}